(lp0
(S'cppflags'
p1
ccopy_reg
_reconstructor
p2
(cino.utils
SpaceList
p3
c__builtin__
list
p4
(lp5
S'-mmcu=atmega328p'
p6
aS'-DF_CPU=16000000L'
p7
aS'-DARDUINO=105'
p8
aS'-I/usr/share/arduino/hardware/arduino/cores/arduino'
p9
aS'-ffunction-sections'
p10
aS'-fdata-sections'
p11
aS'-g'
p12
aS'-Os'
p13
aS'-w'
p14
aS'-I/usr/share/arduino/hardware/arduino/variants/standard'
p15
atp16
Rp17
tp18
a(S'version.txt'
p19
S'/usr/share/arduino/lib/version.txt'
p20
tp21
a(S'cxx'
p22
S'/usr/share/arduino/hardware/tools/avr/bin/avr-g++'
p23
tp24
a(S'make'
p25
S'/usr/share/arduino/hardware/tools/avr/bin/make'
p26
tp27
a(S'cflags'
p28
g2
(g3
g4
(lp29
tp30
Rp31
tp32
a(S'build_dir'
p33
S'.build/pro5v328'
p34
tp35
a(S'arduino_core_dir'
p36
S'/usr/share/arduino/hardware/arduino/cores/arduino'
p37
tp38
a(S'boards.txt'
p39
S'/usr/share/arduino/hardware/arduino/boards.txt'
p40
tp41
a(S'cxxflags'
p42
g2
(g3
g4
(lp43
S'-fno-exceptions'
p44
atp45
Rp46
tp47
a(S'arduino_variants_dir'
p48
S'/usr/share/arduino/hardware/arduino/variants'
p49
tp50
a(S'ar'
p51
S'/usr/share/arduino/hardware/tools/avr/bin/avr-ar'
p52
tp53
a(S'names'
p54
(dp55
S'cpp'
p56
S'%s.cpp'
p57
sS'obj'
p58
S'%s.o'
p59
sS'deps'
p60
S'%s.d'
p61
sS'lib'
p62
S'lib%s.a'
p63
stp64
a(S'deps'
p65
g2
(g3
g4
(lp66
tp67
Rp68
tp69
a(S'ldflags'
p70
g2
(g3
g4
(lp71
g6
aS'-Wl,-Os'
p72
aS'-Wl,--gc-sections'
p73
atp74
Rp75
tp76
a(S'arduino_libraries_dir'
p77
S'/usr/share/arduino/libraries'
p78
tp79
a(S'arduino_lib_version'
p80
g2
(cino.environment
Version
p81
c__builtin__
tuple
p82
(I1
I0
I5
tp83
tp84
Rp85
tp86
a(S'objcopy'
p87
S'/usr/share/arduino/hardware/tools/avr/bin/avr-objcopy'
p88
tp89
a(S'board_models'
p90
cino.environment
BoardModels
p91
((lp92
(lp93
S'uno'
p94
a(dp95
S'build'
p96
(dp97
S'core'
p98
S'arduino'
p99
sS'mcu'
p100
S'atmega328p'
p101
sS'f_cpu'
p102
S'16000000L'
p103
sS'variant'
p104
S'standard'
p105
ssS'bootloader'
p106
(dp107
S'extended_fuses'
p108
S'0x05'
p109
sS'high_fuses'
p110
S'0xde'
p111
sS'low_fuses'
p112
S'0xff'
p113
sS'lock_bits'
p114
S'0x0F'
p115
sS'file'
p116
S'optiboot_atmega328.hex'
p117
sS'path'
p118
S'optiboot'
p119
sS'unlock_bits'
p120
S'0x3F'
p121
ssS'upload'
p122
(dp123
S'protocol'
p124
S'arduino'
p125
sS'maximum_size'
p126
S'32256'
p127
sS'speed'
p128
S'115200'
p129
ssS'name'
p130
S'Arduino Uno'
p131
saa(lp132
S'atmega328'
p133
a(dp134
S'build'
p135
(dp136
S'core'
p137
S'arduino'
p138
sS'mcu'
p139
S'atmega328p'
p140
sS'f_cpu'
p141
S'16000000L'
p142
sS'variant'
p143
S'standard'
p144
ssS'bootloader'
p145
(dp146
S'extended_fuses'
p147
S'0x05'
p148
sS'high_fuses'
p149
S'0xDA'
p150
sS'low_fuses'
p151
S'0xFF'
p152
sS'lock_bits'
p153
S'0x0F'
p154
sS'file'
p155
S'ATmegaBOOT_168_atmega328.hex'
p156
sS'path'
p157
S'atmega'
p158
sS'unlock_bits'
p159
S'0x3F'
p160
ssS'upload'
p161
(dp162
S'protocol'
p163
S'arduino'
p164
sS'maximum_size'
p165
S'30720'
p166
sS'speed'
p167
S'57600'
p168
ssS'name'
p169
S'Arduino Duemilanove w/ ATmega328'
p170
saa(lp171
S'diecimila'
p172
a(dp173
S'build'
p174
(dp175
S'core'
p176
S'arduino'
p177
sS'mcu'
p178
S'atmega168'
p179
sS'f_cpu'
p180
S'16000000L'
p181
sS'variant'
p182
S'standard'
p183
ssS'bootloader'
p184
(dp185
S'extended_fuses'
p186
S'0x00'
p187
sS'high_fuses'
p188
S'0xdd'
p189
sS'low_fuses'
p190
S'0xff'
p191
sS'lock_bits'
p192
S'0x0F'
p193
sS'file'
p194
S'ATmegaBOOT_168_diecimila.hex'
p195
sS'path'
p196
S'atmega'
p197
sS'unlock_bits'
p198
S'0x3F'
p199
ssS'upload'
p200
(dp201
S'protocol'
p202
S'arduino'
p203
sS'maximum_size'
p204
S'14336'
p205
sS'speed'
p206
S'19200'
p207
ssS'name'
p208
S'Arduino Diecimila or Duemilanove w/ ATmega168'
p209
saa(lp210
S'nano328'
p211
a(dp212
S'build'
p213
(dp214
S'core'
p215
S'arduino'
p216
sS'mcu'
p217
S'atmega328p'
p218
sS'f_cpu'
p219
S'16000000L'
p220
sS'variant'
p221
S'eightanaloginputs'
p222
ssS'bootloader'
p223
(dp224
S'extended_fuses'
p225
S'0x05'
p226
sS'high_fuses'
p227
S'0xDA'
p228
sS'low_fuses'
p229
S'0xFF'
p230
sS'lock_bits'
p231
S'0x0F'
p232
sS'file'
p233
S'ATmegaBOOT_168_atmega328.hex'
p234
sS'path'
p235
S'atmega'
p236
sS'unlock_bits'
p237
S'0x3F'
p238
ssS'upload'
p239
(dp240
S'protocol'
p241
S'arduino'
p242
sS'maximum_size'
p243
S'30720'
p244
sS'speed'
p245
S'57600'
p246
ssS'name'
p247
S'Arduino Nano w/ ATmega328'
p248
saa(lp249
S'nano'
p250
a(dp251
S'build'
p252
(dp253
S'core'
p254
S'arduino'
p255
sS'mcu'
p256
S'atmega168'
p257
sS'f_cpu'
p258
S'16000000L'
p259
sS'variant'
p260
S'eightanaloginputs'
p261
ssS'bootloader'
p262
(dp263
S'extended_fuses'
p264
S'0x00'
p265
sS'high_fuses'
p266
S'0xdd'
p267
sS'low_fuses'
p268
S'0xff'
p269
sS'lock_bits'
p270
S'0x0F'
p271
sS'file'
p272
S'ATmegaBOOT_168_diecimila.hex'
p273
sS'path'
p274
S'atmega'
p275
sS'unlock_bits'
p276
S'0x3F'
p277
ssS'upload'
p278
(dp279
S'protocol'
p280
S'arduino'
p281
sS'maximum_size'
p282
S'14336'
p283
sS'speed'
p284
S'19200'
p285
ssS'name'
p286
S'Arduino Nano w/ ATmega168'
p287
saa(lp288
S'mega2560'
p289
a(dp290
S'build'
p291
(dp292
S'core'
p293
S'arduino'
p294
sS'mcu'
p295
S'atmega2560'
p296
sS'f_cpu'
p297
S'16000000L'
p298
sS'variant'
p299
S'mega'
p300
ssS'bootloader'
p301
(dp302
S'extended_fuses'
p303
S'0xFD'
p304
sS'high_fuses'
p305
S'0xD8'
p306
sS'low_fuses'
p307
S'0xFF'
p308
sS'lock_bits'
p309
S'0x0F'
p310
sS'file'
p311
S'stk500boot_v2_mega2560.hex'
p312
sS'path'
p313
S'stk500v2'
p314
sS'unlock_bits'
p315
S'0x3F'
p316
ssS'upload'
p317
(dp318
S'protocol'
p319
S'wiring'
p320
sS'maximum_size'
p321
S'258048'
p322
sS'speed'
p323
S'115200'
p324
ssS'name'
p325
S'Arduino Mega 2560 or Mega ADK'
p326
saa(lp327
S'mega'
p328
a(dp329
S'build'
p330
(dp331
S'core'
p332
S'arduino'
p333
sS'mcu'
p334
S'atmega1280'
p335
sS'f_cpu'
p336
S'16000000L'
p337
sS'variant'
p338
S'mega'
p339
ssS'bootloader'
p340
(dp341
S'extended_fuses'
p342
S'0xF5'
p343
sS'high_fuses'
p344
S'0xDA'
p345
sS'low_fuses'
p346
S'0xFF'
p347
sS'lock_bits'
p348
S'0x0F'
p349
sS'file'
p350
S'ATmegaBOOT_168_atmega1280.hex'
p351
sS'path'
p352
S'atmega'
p353
sS'unlock_bits'
p354
S'0x3F'
p355
ssS'upload'
p356
(dp357
S'protocol'
p358
S'arduino'
p359
sS'maximum_size'
p360
S'126976'
p361
sS'speed'
p362
S'57600'
p363
ssS'name'
p364
S'Arduino Mega (ATmega1280)'
p365
saa(lp366
S'leonardo'
p367
a(dp368
S'build'
p369
(dp370
S'core'
p371
S'arduino'
p372
sS'f_cpu'
p373
S'16000000L'
p374
sS'vid'
p375
S'0x2341'
p376
sS'pid'
p377
S'0x8036'
p378
sS'variant'
p379
S'leonardo'
p380
sS'mcu'
p381
S'atmega32u4'
p382
ssS'bootloader'
p383
(dp384
S'extended_fuses'
p385
S'0xcb'
p386
sS'high_fuses'
p387
S'0xd8'
p388
sS'low_fuses'
p389
S'0xff'
p390
sS'lock_bits'
p391
S'0x2F'
p392
sS'file'
p393
S'Caterina-Leonardo.hex'
p394
sS'path'
p395
S'caterina'
p396
sS'unlock_bits'
p397
S'0x3F'
p398
ssS'upload'
p399
(dp400
S'protocol'
p401
S'avr109'
p402
sS'maximum_size'
p403
S'28672'
p404
sS'speed'
p405
S'57600'
p406
sS'disable_flushing'
p407
S'true'
p408
ssS'name'
p409
S'Arduino Leonardo'
p410
saa(lp411
S'esplora'
p412
a(dp413
S'build'
p414
(dp415
S'core'
p416
S'arduino'
p417
sS'f_cpu'
p418
S'16000000L'
p419
sS'vid'
p420
S'0x2341'
p421
sS'pid'
p422
S'0x803C'
p423
sS'variant'
p424
S'leonardo'
p425
sS'mcu'
p426
S'atmega32u4'
p427
ssS'bootloader'
p428
(dp429
S'extended_fuses'
p430
S'0xcb'
p431
sS'high_fuses'
p432
S'0xd8'
p433
sS'low_fuses'
p434
S'0xff'
p435
sS'lock_bits'
p436
S'0x2F'
p437
sS'file'
p438
S'Caterina-Esplora.hex'
p439
sS'path'
p440
S'caterina'
p441
sS'unlock_bits'
p442
S'0x3F'
p443
ssS'upload'
p444
(dp445
S'protocol'
p446
S'avr109'
p447
sS'maximum_size'
p448
S'28672'
p449
sS'speed'
p450
S'57600'
p451
sS'disable_flushing'
p452
S'true'
p453
ssS'name'
p454
S'Arduino Esplora'
p455
saa(lp456
S'micro'
p457
a(dp458
S'build'
p459
(dp460
S'core'
p461
S'arduino'
p462
sS'f_cpu'
p463
S'16000000L'
p464
sS'vid'
p465
S'0x2341'
p466
sS'pid'
p467
S'0x8037'
p468
sS'variant'
p469
S'micro'
p470
sS'mcu'
p471
S'atmega32u4'
p472
ssS'bootloader'
p473
(dp474
S'extended_fuses'
p475
S'0xcb'
p476
sS'high_fuses'
p477
S'0xd8'
p478
sS'low_fuses'
p479
S'0xff'
p480
sS'lock_bits'
p481
S'0x2F'
p482
sS'file'
p483
S'Caterina-Micro.hex'
p484
sS'path'
p485
S'caterina'
p486
sS'unlock_bits'
p487
S'0x3F'
p488
ssS'upload'
p489
(dp490
S'protocol'
p491
S'avr109'
p492
sS'maximum_size'
p493
S'28672'
p494
sS'speed'
p495
S'57600'
p496
sS'disable_flushing'
p497
S'true'
p498
ssS'name'
p499
S'Arduino Micro'
p500
saa(lp501
S'mini328'
p502
a(dp503
S'build'
p504
(dp505
S'core'
p506
S'arduino'
p507
sS'mcu'
p508
S'atmega328p'
p509
sS'f_cpu'
p510
S'16000000L'
p511
sS'variant'
p512
S'eightanaloginputs'
p513
ssS'bootloader'
p514
(dp515
S'extended_fuses'
p516
S'0x05'
p517
sS'high_fuses'
p518
S'0xd8'
p519
sS'low_fuses'
p520
S'0xff'
p521
sS'lock_bits'
p522
S'0x0F'
p523
sS'file'
p524
S'optiboot_atmega328-Mini.hex'
p525
sS'path'
p526
S'optiboot'
p527
sS'unlock_bits'
p528
S'0x3F'
p529
ssS'upload'
p530
(dp531
S'protocol'
p532
S'arduino'
p533
sS'maximum_size'
p534
S'28672'
p535
sS'speed'
p536
S'115200'
p537
ssS'name'
p538
S'Arduino Mini w/ ATmega328'
p539
saa(lp540
S'mini'
p541
a(dp542
S'build'
p543
(dp544
S'core'
p545
S'arduino'
p546
sS'mcu'
p547
S'atmega168'
p548
sS'f_cpu'
p549
S'16000000L'
p550
sS'variant'
p551
S'eightanaloginputs'
p552
ssS'bootloader'
p553
(dp554
S'extended_fuses'
p555
S'0x00'
p556
sS'high_fuses'
p557
S'0xdd'
p558
sS'low_fuses'
p559
S'0xff'
p560
sS'lock_bits'
p561
S'0x0F'
p562
sS'file'
p563
S'ATmegaBOOT_168_ng.hex'
p564
sS'path'
p565
S'atmega'
p566
sS'unlock_bits'
p567
S'0x3F'
p568
ssS'upload'
p569
(dp570
S'protocol'
p571
S'arduino'
p572
sS'maximum_size'
p573
S'14336'
p574
sS'speed'
p575
S'19200'
p576
ssS'name'
p577
S'Arduino Mini w/ ATmega168'
p578
saa(lp579
S'ethernet'
p580
a(dp581
S'build'
p582
(dp583
S'variant'
p584
S'standard'
p585
sS'mcu'
p586
S'atmega328p'
p587
sS'f_cpu'
p588
S'16000000L'
p589
sS'core'
p590
S'arduino'
p591
ssS'bootloader'
p592
(dp593
S'extended_fuses'
p594
S'0x05'
p595
sS'high_fuses'
p596
S'0xde'
p597
sS'low_fuses'
p598
S'0xff'
p599
sS'lock_bits'
p600
S'0x0F'
p601
sS'file'
p602
S'optiboot_atmega328.hex'
p603
sS'path'
p604
S'optiboot'
p605
sS'unlock_bits'
p606
S'0x3F'
p607
ssS'upload'
p608
(dp609
S'protocol'
p610
S'arduino'
p611
sS'maximum_size'
p612
S'32256'
p613
sS'speed'
p614
S'115200'
p615
ssS'name'
p616
S'Arduino Ethernet'
p617
saa(lp618
S'fio'
p619
a(dp620
S'build'
p621
(dp622
S'core'
p623
S'arduino'
p624
sS'mcu'
p625
S'atmega328p'
p626
sS'f_cpu'
p627
S'8000000L'
p628
sS'variant'
p629
S'eightanaloginputs'
p630
ssS'bootloader'
p631
(dp632
S'extended_fuses'
p633
S'0x05'
p634
sS'high_fuses'
p635
S'0xDA'
p636
sS'low_fuses'
p637
S'0xFF'
p638
sS'lock_bits'
p639
S'0x0F'
p640
sS'file'
p641
S'ATmegaBOOT_168_atmega328_pro_8MHz.hex'
p642
sS'path'
p643
S'arduino:atmega'
p644
sS'unlock_bits'
p645
S'0x3F'
p646
ssS'upload'
p647
(dp648
S'protocol'
p649
S'arduino'
p650
sS'maximum_size'
p651
S'30720'
p652
sS'speed'
p653
S'57600'
p654
ssS'name'
p655
S'Arduino Fio'
p656
saa(lp657
S'bt328'
p658
a(dp659
S'build'
p660
(dp661
S'core'
p662
S'arduino'
p663
sS'mcu'
p664
S'atmega328p'
p665
sS'f_cpu'
p666
S'16000000L'
p667
sS'variant'
p668
S'eightanaloginputs'
p669
ssS'bootloader'
p670
(dp671
S'extended_fuses'
p672
S'0x05'
p673
sS'high_fuses'
p674
S'0xd8'
p675
sS'low_fuses'
p676
S'0xff'
p677
sS'lock_bits'
p678
S'0x0F'
p679
sS'file'
p680
S'ATmegaBOOT_168_atmega328_bt.hex'
p681
sS'path'
p682
S'bt'
p683
sS'unlock_bits'
p684
S'0x3F'
p685
ssS'upload'
p686
(dp687
S'protocol'
p688
S'arduino'
p689
sS'maximum_size'
p690
S'28672'
p691
sS'speed'
p692
S'19200'
p693
sS'disable_flushing'
p694
S'true'
p695
ssS'name'
p696
S'Arduino BT w/ ATmega328'
p697
saa(lp698
S'bt'
p699
a(dp700
S'build'
p701
(dp702
S'core'
p703
S'arduino'
p704
sS'mcu'
p705
S'atmega168'
p706
sS'f_cpu'
p707
S'16000000L'
p708
sS'variant'
p709
S'eightanaloginputs'
p710
ssS'bootloader'
p711
(dp712
S'extended_fuses'
p713
S'0x00'
p714
sS'high_fuses'
p715
S'0xdd'
p716
sS'low_fuses'
p717
S'0xff'
p718
sS'lock_bits'
p719
S'0x0F'
p720
sS'file'
p721
S'ATmegaBOOT_168.hex'
p722
sS'path'
p723
S'bt'
p724
sS'unlock_bits'
p725
S'0x3F'
p726
ssS'upload'
p727
(dp728
S'protocol'
p729
S'arduino'
p730
sS'maximum_size'
p731
S'14336'
p732
sS'speed'
p733
S'19200'
p734
sS'disable_flushing'
p735
S'true'
p736
ssS'name'
p737
S'Arduino BT w/ ATmega168'
p738
saa(lp739
S'LilyPadUSB'
p740
a(dp741
S'build'
p742
(dp743
S'core'
p744
S'arduino'
p745
sS'f_cpu'
p746
S'8000000L'
p747
sS'vid'
p748
S'0x1B4F'
p749
sS'pid'
p750
S'0x9208'
p751
sS'variant'
p752
S'leonardo'
p753
sS'mcu'
p754
S'atmega32u4'
p755
ssS'bootloader'
p756
(dp757
S'extended_fuses'
p758
S'0xce'
p759
sS'high_fuses'
p760
S'0xd8'
p761
sS'low_fuses'
p762
S'0xff'
p763
sS'lock_bits'
p764
S'0x2F'
p765
sS'file'
p766
S'Caterina-LilyPadUSB.hex'
p767
sS'path'
p768
S'caterina-LilyPadUSB'
p769
sS'unlock_bits'
p770
S'0x3F'
p771
ssS'upload'
p772
(dp773
S'protocol'
p774
S'avr109'
p775
sS'maximum_size'
p776
S'28672'
p777
sS'speed'
p778
S'57600'
p779
sS'disable_flushing'
p780
S'true'
p781
ssS'name'
p782
S'LilyPad Arduino USB'
p783
saa(lp784
S'lilypad328'
p785
a(dp786
S'build'
p787
(dp788
S'core'
p789
S'arduino'
p790
sS'mcu'
p791
S'atmega328p'
p792
sS'f_cpu'
p793
S'8000000L'
p794
sS'variant'
p795
S'standard'
p796
ssS'bootloader'
p797
(dp798
S'extended_fuses'
p799
S'0x05'
p800
sS'high_fuses'
p801
S'0xDA'
p802
sS'low_fuses'
p803
S'0xFF'
p804
sS'lock_bits'
p805
S'0x0F'
p806
sS'file'
p807
S'ATmegaBOOT_168_atmega328_pro_8MHz.hex'
p808
sS'path'
p809
S'atmega'
p810
sS'unlock_bits'
p811
S'0x3F'
p812
ssS'upload'
p813
(dp814
S'protocol'
p815
S'arduino'
p816
sS'maximum_size'
p817
S'30720'
p818
sS'speed'
p819
S'57600'
p820
ssS'name'
p821
S'LilyPad Arduino w/ ATmega328'
p822
saa(lp823
S'lilypad'
p824
a(dp825
S'build'
p826
(dp827
S'core'
p828
S'arduino'
p829
sS'mcu'
p830
S'atmega168'
p831
sS'f_cpu'
p832
S'8000000L'
p833
sS'variant'
p834
S'standard'
p835
ssS'bootloader'
p836
(dp837
S'extended_fuses'
p838
S'0x00'
p839
sS'high_fuses'
p840
S'0xdd'
p841
sS'low_fuses'
p842
S'0xe2'
p843
sS'lock_bits'
p844
S'0x0F'
p845
sS'file'
p846
S'LilyPadBOOT_168.hex'
p847
sS'path'
p848
S'lilypad'
p849
sS'unlock_bits'
p850
S'0x3F'
p851
ssS'upload'
p852
(dp853
S'protocol'
p854
S'arduino'
p855
sS'maximum_size'
p856
S'14336'
p857
sS'speed'
p858
S'19200'
p859
ssS'name'
p860
S'LilyPad Arduino w/ ATmega168'
p861
saa(lp862
S'pro5v328'
p863
a(dp864
S'build'
p865
(dp866
S'core'
p867
S'arduino'
p868
sS'mcu'
p869
S'atmega328p'
p870
sS'f_cpu'
p871
S'16000000L'
p872
sS'variant'
p873
S'standard'
p874
ssS'bootloader'
p875
(dp876
S'extended_fuses'
p877
S'0x05'
p878
sS'high_fuses'
p879
S'0xDA'
p880
sS'low_fuses'
p881
S'0xFF'
p882
sS'lock_bits'
p883
S'0x0F'
p884
sS'file'
p885
S'ATmegaBOOT_168_atmega328.hex'
p886
sS'path'
p887
S'atmega'
p888
sS'unlock_bits'
p889
S'0x3F'
p890
ssS'upload'
p891
(dp892
S'protocol'
p893
S'arduino'
p894
sS'maximum_size'
p895
S'30720'
p896
sS'speed'
p897
S'57600'
p898
ssS'name'
p899
S'Arduino Pro or Pro Mini (5V, 16 MHz) w/ ATmega328'
p900
saa(lp901
S'pro5v'
p902
a(dp903
S'build'
p904
(dp905
S'core'
p906
S'arduino'
p907
sS'mcu'
p908
S'atmega168'
p909
sS'f_cpu'
p910
S'16000000L'
p911
sS'variant'
p912
S'standard'
p913
ssS'bootloader'
p914
(dp915
S'extended_fuses'
p916
S'0x00'
p917
sS'high_fuses'
p918
S'0xdd'
p919
sS'low_fuses'
p920
S'0xff'
p921
sS'lock_bits'
p922
S'0x0F'
p923
sS'file'
p924
S'ATmegaBOOT_168_diecimila.hex'
p925
sS'path'
p926
S'atmega'
p927
sS'unlock_bits'
p928
S'0x3F'
p929
ssS'upload'
p930
(dp931
S'protocol'
p932
S'arduino'
p933
sS'maximum_size'
p934
S'14336'
p935
sS'speed'
p936
S'19200'
p937
ssS'name'
p938
S'Arduino Pro or Pro Mini (5V, 16 MHz) w/ ATmega168'
p939
saa(lp940
S'pro328'
p941
a(dp942
S'build'
p943
(dp944
S'core'
p945
S'arduino'
p946
sS'mcu'
p947
S'atmega328p'
p948
sS'f_cpu'
p949
S'8000000L'
p950
sS'variant'
p951
S'standard'
p952
ssS'bootloader'
p953
(dp954
S'extended_fuses'
p955
S'0x05'
p956
sS'high_fuses'
p957
S'0xDA'
p958
sS'low_fuses'
p959
S'0xFF'
p960
sS'lock_bits'
p961
S'0x0F'
p962
sS'file'
p963
S'ATmegaBOOT_168_atmega328_pro_8MHz.hex'
p964
sS'path'
p965
S'atmega'
p966
sS'unlock_bits'
p967
S'0x3F'
p968
ssS'upload'
p969
(dp970
S'protocol'
p971
S'arduino'
p972
sS'maximum_size'
p973
S'30720'
p974
sS'speed'
p975
S'57600'
p976
ssS'name'
p977
S'Arduino Pro or Pro Mini (3.3V, 8 MHz) w/ ATmega328'
p978
saa(lp979
S'pro'
p980
a(dp981
S'build'
p982
(dp983
S'core'
p984
S'arduino'
p985
sS'mcu'
p986
S'atmega168'
p987
sS'f_cpu'
p988
S'8000000L'
p989
sS'variant'
p990
S'standard'
p991
ssS'bootloader'
p992
(dp993
S'extended_fuses'
p994
S'0x00'
p995
sS'high_fuses'
p996
S'0xdd'
p997
sS'low_fuses'
p998
S'0xc6'
p999
sS'lock_bits'
p1000
S'0x0F'
p1001
sS'file'
p1002
S'ATmegaBOOT_168_pro_8MHz.hex'
p1003
sS'path'
p1004
S'atmega'
p1005
sS'unlock_bits'
p1006
S'0x3F'
p1007
ssS'upload'
p1008
(dp1009
S'protocol'
p1010
S'arduino'
p1011
sS'maximum_size'
p1012
S'14336'
p1013
sS'speed'
p1014
S'19200'
p1015
ssS'name'
p1016
S'Arduino Pro or Pro Mini (3.3V, 8 MHz) w/ ATmega168'
p1017
saa(lp1018
S'atmega168'
p1019
a(dp1020
S'build'
p1021
(dp1022
S'core'
p1023
S'arduino'
p1024
sS'mcu'
p1025
S'atmega168'
p1026
sS'f_cpu'
p1027
S'16000000L'
p1028
sS'variant'
p1029
S'standard'
p1030
ssS'bootloader'
p1031
(dp1032
S'extended_fuses'
p1033
S'0x00'
p1034
sS'high_fuses'
p1035
S'0xdd'
p1036
sS'low_fuses'
p1037
S'0xff'
p1038
sS'lock_bits'
p1039
S'0x0F'
p1040
sS'file'
p1041
S'ATmegaBOOT_168_ng.hex'
p1042
sS'path'
p1043
S'atmega'
p1044
sS'unlock_bits'
p1045
S'0x3F'
p1046
ssS'upload'
p1047
(dp1048
S'protocol'
p1049
S'arduino'
p1050
sS'maximum_size'
p1051
S'14336'
p1052
sS'speed'
p1053
S'19200'
p1054
ssS'name'
p1055
S'Arduino NG or older w/ ATmega168'
p1056
saa(lp1057
S'atmega8'
p1058
a(dp1059
S'build'
p1060
(dp1061
S'core'
p1062
S'arduino'
p1063
sS'mcu'
p1064
S'atmega8'
p1065
sS'f_cpu'
p1066
S'16000000L'
p1067
sS'variant'
p1068
S'standard'
p1069
ssS'bootloader'
p1070
(dp1071
S'high_fuses'
p1072
S'0xca'
p1073
sS'low_fuses'
p1074
S'0xdf'
p1075
sS'lock_bits'
p1076
S'0x0F'
p1077
sS'file'
p1078
S'ATmegaBOOT-prod-firmware-2009-11-07.hex'
p1079
sS'path'
p1080
S'atmega8'
p1081
sS'unlock_bits'
p1082
S'0x3F'
p1083
ssS'upload'
p1084
(dp1085
S'protocol'
p1086
S'arduino'
p1087
sS'maximum_size'
p1088
S'7168'
p1089
sS'speed'
p1090
S'19200'
p1091
ssS'name'
p1092
S'Arduino NG or older w/ ATmega8'
p1093
saa(lp1094
S'robotControl'
p1095
a(dp1096
S'build'
p1097
(dp1098
S'core'
p1099
S'robot'
p1100
sS'f_cpu'
p1101
S'16000000L'
p1102
sS'vid'
p1103
S'0x2341'
p1104
sS'pid'
p1105
S'0x8038'
p1106
sS'variant'
p1107
S'robot_control'
p1108
sS'mcu'
p1109
S'atmega32u4'
p1110
ssS'bootloader'
p1111
(dp1112
S'extended_fuses'
p1113
S'0xcb'
p1114
sS'high_fuses'
p1115
S'0xd8'
p1116
sS'low_fuses'
p1117
S'0xff'
p1118
sS'lock_bits'
p1119
S'0x2F'
p1120
sS'file'
p1121
S'Caterina-Robot-Control.hex'
p1122
sS'path'
p1123
S'caterina-Arduino_Robot'
p1124
sS'unlock_bits'
p1125
S'0x3F'
p1126
ssS'upload'
p1127
(dp1128
S'protocol'
p1129
S'avr109'
p1130
sS'maximum_size'
p1131
S'28672'
p1132
sS'speed'
p1133
S'57600'
p1134
sS'disable_flushing'
p1135
S'true'
p1136
ssS'name'
p1137
S'Arduino Robot Control'
p1138
saa(lp1139
S'robotMotor'
p1140
a(dp1141
S'build'
p1142
(dp1143
S'core'
p1144
S'robot'
p1145
sS'f_cpu'
p1146
S'16000000L'
p1147
sS'vid'
p1148
S'0x2341'
p1149
sS'pid'
p1150
S'0x8039'
p1151
sS'variant'
p1152
S'robot_motor'
p1153
sS'mcu'
p1154
S'atmega32u4'
p1155
ssS'bootloader'
p1156
(dp1157
S'extended_fuses'
p1158
S'0xcb'
p1159
sS'high_fuses'
p1160
S'0xd8'
p1161
sS'low_fuses'
p1162
S'0xff'
p1163
sS'lock_bits'
p1164
S'0x2F'
p1165
sS'file'
p1166
S'Caterina-Robot-Motor.hex'
p1167
sS'path'
p1168
S'caterina-Arduino_Robot'
p1169
sS'unlock_bits'
p1170
S'0x3F'
p1171
ssS'upload'
p1172
(dp1173
S'protocol'
p1174
S'avr109'
p1175
sS'maximum_size'
p1176
S'28672'
p1177
sS'speed'
p1178
S'57600'
p1179
sS'disable_flushing'
p1180
S'true'
p1181
ssS'name'
p1182
S'Arduino Robot Motor'
p1183
saatp1184
Rp1185
(dp1186
S'default'
p1187
S'uno'
p1188
sbtp1189
a(S'cc'
p1190
S'/usr/share/arduino/hardware/tools/avr/bin/avr-gcc'
p1191
tp1192
a.